; ModuleID = '21/102.c'
source_filename = "21/102.c"
target datalayout = "e-m:e-p270:32:32-p271:32:32-p272:64:64-i64:64-f80:128-n8:16:32:64-S128"
target triple = "x86_64-pc-linux-gnu"

@.str = private unnamed_addr constant [3 x i8] c"%d\00", align 1
@.str.1 = private unnamed_addr constant [4 x i8] c",%d\00", align 1

; Function Attrs: noinline nounwind uwtable
define dso_local void @main() #0 {
  %1 = alloca [100 x i32], align 16
  %2 = alloca i32, align 4
  %3 = alloca i32, align 4
  %4 = alloca i32, align 4
  %5 = alloca i32, align 4
  %6 = alloca i32, align 4
  %7 = alloca float, align 4
  %8 = alloca float, align 4
  %9 = alloca float, align 4
  store i32 0, i32* %6, align 4
  %10 = call i32 (i8*, ...) @__isoc99_scanf(i8* getelementptr inbounds ([3 x i8], [3 x i8]* @.str, i64 0, i64 0), i32* %2)
  store i32 0, i32* %3, align 4
  br label %11

11:                                               ; preds = %20, %0
  %12 = load i32, i32* %3, align 4
  %13 = load i32, i32* %2, align 4
  %14 = icmp slt i32 %12, %13
  br i1 %14, label %15, label %23

15:                                               ; preds = %11
  %16 = load i32, i32* %3, align 4
  %17 = sext i32 %16 to i64
  %18 = getelementptr inbounds [100 x i32], [100 x i32]* %1, i64 0, i64 %17
  %19 = call i32 (i8*, ...) @__isoc99_scanf(i8* getelementptr inbounds ([3 x i8], [3 x i8]* @.str, i64 0, i64 0), i32* %18)
  br label %20

20:                                               ; preds = %15
  %21 = load i32, i32* %3, align 4
  %22 = add nsw i32 %21, 1
  store i32 %22, i32* %3, align 4
  br label %11

23:                                               ; preds = %11
  store i32 1, i32* %3, align 4
  br label %24

24:                                               ; preds = %69, %23
  %25 = load i32, i32* %3, align 4
  %26 = load i32, i32* %2, align 4
  %27 = icmp slt i32 %25, %26
  br i1 %27, label %28, label %72

28:                                               ; preds = %24
  store i32 0, i32* %4, align 4
  br label %29

29:                                               ; preds = %65, %28
  %30 = load i32, i32* %4, align 4
  %31 = load i32, i32* %2, align 4
  %32 = load i32, i32* %3, align 4
  %33 = sub nsw i32 %31, %32
  %34 = icmp slt i32 %30, %33
  br i1 %34, label %35, label %68

35:                                               ; preds = %29
  %36 = load i32, i32* %4, align 4
  %37 = sext i32 %36 to i64
  %38 = getelementptr inbounds [100 x i32], [100 x i32]* %1, i64 0, i64 %37
  %39 = load i32, i32* %38, align 4
  %40 = load i32, i32* %4, align 4
  %41 = add nsw i32 %40, 1
  %42 = sext i32 %41 to i64
  %43 = getelementptr inbounds [100 x i32], [100 x i32]* %1, i64 0, i64 %42
  %44 = load i32, i32* %43, align 4
  %45 = icmp sgt i32 %39, %44
  br i1 %45, label %46, label %64

46:                                               ; preds = %35
  %47 = load i32, i32* %4, align 4
  %48 = sext i32 %47 to i64
  %49 = getelementptr inbounds [100 x i32], [100 x i32]* %1, i64 0, i64 %48
  %50 = load i32, i32* %49, align 4
  store i32 %50, i32* %5, align 4
  %51 = load i32, i32* %4, align 4
  %52 = add nsw i32 %51, 1
  %53 = sext i32 %52 to i64
  %54 = getelementptr inbounds [100 x i32], [100 x i32]* %1, i64 0, i64 %53
  %55 = load i32, i32* %54, align 4
  %56 = load i32, i32* %4, align 4
  %57 = sext i32 %56 to i64
  %58 = getelementptr inbounds [100 x i32], [100 x i32]* %1, i64 0, i64 %57
  store i32 %55, i32* %58, align 4
  %59 = load i32, i32* %5, align 4
  %60 = load i32, i32* %4, align 4
  %61 = add nsw i32 %60, 1
  %62 = sext i32 %61 to i64
  %63 = getelementptr inbounds [100 x i32], [100 x i32]* %1, i64 0, i64 %62
  store i32 %59, i32* %63, align 4
  br label %64

64:                                               ; preds = %46, %35
  br label %65

65:                                               ; preds = %64
  %66 = load i32, i32* %4, align 4
  %67 = add nsw i32 %66, 1
  store i32 %67, i32* %4, align 4
  br label %29

68:                                               ; preds = %29
  br label %69

69:                                               ; preds = %68
  %70 = load i32, i32* %3, align 4
  %71 = add nsw i32 %70, 1
  store i32 %71, i32* %3, align 4
  br label %24

72:                                               ; preds = %24
  store i32 0, i32* %3, align 4
  br label %73

73:                                               ; preds = %84, %72
  %74 = load i32, i32* %3, align 4
  %75 = load i32, i32* %2, align 4
  %76 = icmp slt i32 %74, %75
  br i1 %76, label %77, label %87

77:                                               ; preds = %73
  %78 = load i32, i32* %3, align 4
  %79 = sext i32 %78 to i64
  %80 = getelementptr inbounds [100 x i32], [100 x i32]* %1, i64 0, i64 %79
  %81 = load i32, i32* %80, align 4
  %82 = load i32, i32* %6, align 4
  %83 = add nsw i32 %82, %81
  store i32 %83, i32* %6, align 4
  br label %84

84:                                               ; preds = %77
  %85 = load i32, i32* %3, align 4
  %86 = add nsw i32 %85, 1
  store i32 %86, i32* %3, align 4
  br label %73

87:                                               ; preds = %73
  %88 = load i32, i32* %6, align 4
  %89 = sitofp i32 %88 to float
  %90 = load i32, i32* %2, align 4
  %91 = sitofp i32 %90 to float
  %92 = fdiv float %89, %91
  store float %92, float* %7, align 4
  %93 = load i32, i32* %2, align 4
  %94 = sub nsw i32 %93, 1
  %95 = sext i32 %94 to i64
  %96 = getelementptr inbounds [100 x i32], [100 x i32]* %1, i64 0, i64 %95
  %97 = load i32, i32* %96, align 4
  %98 = sitofp i32 %97 to float
  %99 = load float, float* %7, align 4
  %100 = fsub float %98, %99
  store float %100, float* %8, align 4
  %101 = load float, float* %7, align 4
  %102 = getelementptr inbounds [100 x i32], [100 x i32]* %1, i64 0, i64 0
  %103 = load i32, i32* %102, align 16
  %104 = sitofp i32 %103 to float
  %105 = fsub float %101, %104
  store float %105, float* %9, align 4
  %106 = load float, float* %8, align 4
  %107 = load float, float* %9, align 4
  %108 = fcmp ogt float %106, %107
  br i1 %108, label %109, label %142

109:                                              ; preds = %87
  %110 = load i32, i32* %2, align 4
  %111 = sub nsw i32 %110, 1
  %112 = sext i32 %111 to i64
  %113 = getelementptr inbounds [100 x i32], [100 x i32]* %1, i64 0, i64 %112
  %114 = load i32, i32* %113, align 4
  %115 = call i32 (i8*, ...) @printf(i8* getelementptr inbounds ([3 x i8], [3 x i8]* @.str, i64 0, i64 0), i32 %114)
  store i32 1, i32* %3, align 4
  br label %116

116:                                              ; preds = %138, %109
  %117 = load i32, i32* %3, align 4
  %118 = load i32, i32* %2, align 4
  %119 = sub nsw i32 %118, 1
  %120 = icmp slt i32 %117, %119
  br i1 %120, label %121, label %141

121:                                              ; preds = %116
  %122 = load i32, i32* %3, align 4
  %123 = sext i32 %122 to i64
  %124 = getelementptr inbounds [100 x i32], [100 x i32]* %1, i64 0, i64 %123
  %125 = load i32, i32* %124, align 4
  %126 = sitofp i32 %125 to float
  %127 = load float, float* %7, align 4
  %128 = fsub float %126, %127
  %129 = load float, float* %8, align 4
  %130 = fcmp oeq float %128, %129
  br i1 %130, label %131, label %137

131:                                              ; preds = %121
  %132 = load i32, i32* %3, align 4
  %133 = sext i32 %132 to i64
  %134 = getelementptr inbounds [100 x i32], [100 x i32]* %1, i64 0, i64 %133
  %135 = load i32, i32* %134, align 4
  %136 = call i32 (i8*, ...) @printf(i8* getelementptr inbounds ([4 x i8], [4 x i8]* @.str.1, i64 0, i64 0), i32 %135)
  br label %137

137:                                              ; preds = %131, %121
  br label %138

138:                                              ; preds = %137
  %139 = load i32, i32* %3, align 4
  %140 = add nsw i32 %139, 1
  store i32 %140, i32* %3, align 4
  br label %116

141:                                              ; preds = %116
  br label %182

142:                                              ; preds = %87
  %143 = getelementptr inbounds [100 x i32], [100 x i32]* %1, i64 0, i64 0
  %144 = load i32, i32* %143, align 16
  %145 = call i32 (i8*, ...) @printf(i8* getelementptr inbounds ([3 x i8], [3 x i8]* @.str, i64 0, i64 0), i32 %144)
  store i32 1, i32* %3, align 4
  br label %146

146:                                              ; preds = %178, %142
  %147 = load i32, i32* %3, align 4
  %148 = load i32, i32* %2, align 4
  %149 = sub nsw i32 %148, 1
  %150 = icmp sle i32 %147, %149
  br i1 %150, label %151, label %181

151:                                              ; preds = %146
  %152 = load i32, i32* %3, align 4
  %153 = sext i32 %152 to i64
  %154 = getelementptr inbounds [100 x i32], [100 x i32]* %1, i64 0, i64 %153
  %155 = load i32, i32* %154, align 4
  %156 = sitofp i32 %155 to float
  %157 = load float, float* %7, align 4
  %158 = fsub float %156, %157
  %159 = load float, float* %9, align 4
  %160 = fcmp oeq float %158, %159
  br i1 %160, label %171, label %161

161:                                              ; preds = %151
  %162 = load float, float* %7, align 4
  %163 = load i32, i32* %3, align 4
  %164 = sext i32 %163 to i64
  %165 = getelementptr inbounds [100 x i32], [100 x i32]* %1, i64 0, i64 %164
  %166 = load i32, i32* %165, align 4
  %167 = sitofp i32 %166 to float
  %168 = fsub float %162, %167
  %169 = load float, float* %9, align 4
  %170 = fcmp oeq float %168, %169
  br i1 %170, label %171, label %177

171:                                              ; preds = %161, %151
  %172 = load i32, i32* %3, align 4
  %173 = sext i32 %172 to i64
  %174 = getelementptr inbounds [100 x i32], [100 x i32]* %1, i64 0, i64 %173
  %175 = load i32, i32* %174, align 4
  %176 = call i32 (i8*, ...) @printf(i8* getelementptr inbounds ([4 x i8], [4 x i8]* @.str.1, i64 0, i64 0), i32 %175)
  br label %177

177:                                              ; preds = %171, %161
  br label %178

178:                                              ; preds = %177
  %179 = load i32, i32* %3, align 4
  %180 = add nsw i32 %179, 1
  store i32 %180, i32* %3, align 4
  br label %146

181:                                              ; preds = %146
  br label %182

182:                                              ; preds = %181, %141
  ret void
}

declare dso_local i32 @__isoc99_scanf(i8*, ...) #1

declare dso_local i32 @printf(i8*, ...) #1


!llvm.module.flags = !{!0}
!llvm.ident = !{!1}

!0 = !{i32 1, !"wchar_size", i32 4}
!1 = !{!"clang version 10.0.0-4ubuntu1 "}
