; ModuleID = 'source-C-CXX/20/102.c'
source_filename = "source-C-CXX/20/102.c"
target datalayout = "e-m:e-p270:32:32-p271:32:32-p272:64:64-i64:64-f80:128-n8:16:32:64-S128"
target triple = "x86_64-pc-linux-gnu"

@.str = private unnamed_addr constant [3 x i8] c"%d\00", align 1
@.str.1 = private unnamed_addr constant [4 x i8] c",%d\00", align 1

; Function Attrs: nofree nounwind sspstrong uwtable
define dso_local void @main() local_unnamed_addr #0 {
  %1 = alloca [100 x i32], align 16
  %2 = alloca i32, align 4
  %3 = bitcast [100 x i32]* %1 to i8*
  call void @llvm.lifetime.start.p0i8(i64 400, i8* nonnull %3) #4
  %4 = bitcast i32* %2 to i8*
  call void @llvm.lifetime.start.p0i8(i64 4, i8* nonnull %4) #4
  %5 = call i32 (i8*, ...) @__isoc99_scanf(i8* getelementptr inbounds ([3 x i8], [3 x i8]* @.str, i64 0, i64 0), i32* nonnull %2)
  %6 = load i32, i32* %2, align 4, !tbaa !5
  %7 = icmp sgt i32 %6, 0
  br i1 %7, label %12, label %164

8:                                                ; preds = %12
  %9 = icmp sgt i32 %17, 1
  br i1 %9, label %10, label %33

10:                                               ; preds = %8
  %11 = getelementptr inbounds [100 x i32], [100 x i32]* %1, i64 0, i64 0
  br label %20

12:                                               ; preds = %0, %12
  %13 = phi i64 [ %16, %12 ], [ 0, %0 ]
  %14 = getelementptr inbounds [100 x i32], [100 x i32]* %1, i64 0, i64 %13
  %15 = call i32 (i8*, ...) @__isoc99_scanf(i8* getelementptr inbounds ([3 x i8], [3 x i8]* @.str, i64 0, i64 0), i32* nonnull %14)
  %16 = add nuw nsw i64 %13, 1
  %17 = load i32, i32* %2, align 4, !tbaa !5
  %18 = sext i32 %17 to i64
  %19 = icmp slt i64 %16, %18
  br i1 %19, label %12, label %8, !llvm.loop !9

20:                                               ; preds = %10, %149
  %21 = phi i32 [ 0, %10 ], [ %152, %149 ]
  %22 = phi i32 [ 1, %10 ], [ %150, %149 ]
  %23 = xor i32 %21, -1
  %24 = add i32 %17, %23
  %25 = zext i32 %24 to i64
  %26 = icmp sgt i32 %17, %22
  br i1 %26, label %27, label %149

27:                                               ; preds = %20
  %28 = load i32, i32* %11, align 16, !tbaa !5
  %29 = and i64 %25, 1
  %30 = icmp eq i32 %24, 1
  br i1 %30, label %138, label %31

31:                                               ; preds = %27
  %32 = and i64 %25, 4294967294
  br label %122

33:                                               ; preds = %149, %8
  %34 = icmp sgt i32 %17, 0
  br i1 %34, label %35, label %164

35:                                               ; preds = %33
  %36 = zext i32 %17 to i64
  %37 = icmp ult i32 %17, 8
  br i1 %37, label %119, label %38

38:                                               ; preds = %35
  %39 = and i64 %36, 4294967288
  %40 = add nsw i64 %39, -8
  %41 = lshr exact i64 %40, 3
  %42 = add nuw nsw i64 %41, 1
  %43 = and i64 %42, 3
  %44 = icmp ult i64 %40, 24
  br i1 %44, label %90, label %45

45:                                               ; preds = %38
  %46 = and i64 %42, 4611686018427387900
  br label %47

47:                                               ; preds = %47, %45
  %48 = phi i64 [ 0, %45 ], [ %87, %47 ]
  %49 = phi <4 x i32> [ zeroinitializer, %45 ], [ %85, %47 ]
  %50 = phi <4 x i32> [ zeroinitializer, %45 ], [ %86, %47 ]
  %51 = phi i64 [ %46, %45 ], [ %88, %47 ]
  %52 = getelementptr inbounds [100 x i32], [100 x i32]* %1, i64 0, i64 %48
  %53 = bitcast i32* %52 to <4 x i32>*
  %54 = load <4 x i32>, <4 x i32>* %53, align 16, !tbaa !5
  %55 = getelementptr inbounds i32, i32* %52, i64 4
  %56 = bitcast i32* %55 to <4 x i32>*
  %57 = load <4 x i32>, <4 x i32>* %56, align 16, !tbaa !5
  %58 = add <4 x i32> %54, %49
  %59 = add <4 x i32> %57, %50
  %60 = or i64 %48, 8
  %61 = getelementptr inbounds [100 x i32], [100 x i32]* %1, i64 0, i64 %60
  %62 = bitcast i32* %61 to <4 x i32>*
  %63 = load <4 x i32>, <4 x i32>* %62, align 16, !tbaa !5
  %64 = getelementptr inbounds i32, i32* %61, i64 4
  %65 = bitcast i32* %64 to <4 x i32>*
  %66 = load <4 x i32>, <4 x i32>* %65, align 16, !tbaa !5
  %67 = add <4 x i32> %63, %58
  %68 = add <4 x i32> %66, %59
  %69 = or i64 %48, 16
  %70 = getelementptr inbounds [100 x i32], [100 x i32]* %1, i64 0, i64 %69
  %71 = bitcast i32* %70 to <4 x i32>*
  %72 = load <4 x i32>, <4 x i32>* %71, align 16, !tbaa !5
  %73 = getelementptr inbounds i32, i32* %70, i64 4
  %74 = bitcast i32* %73 to <4 x i32>*
  %75 = load <4 x i32>, <4 x i32>* %74, align 16, !tbaa !5
  %76 = add <4 x i32> %72, %67
  %77 = add <4 x i32> %75, %68
  %78 = or i64 %48, 24
  %79 = getelementptr inbounds [100 x i32], [100 x i32]* %1, i64 0, i64 %78
  %80 = bitcast i32* %79 to <4 x i32>*
  %81 = load <4 x i32>, <4 x i32>* %80, align 16, !tbaa !5
  %82 = getelementptr inbounds i32, i32* %79, i64 4
  %83 = bitcast i32* %82 to <4 x i32>*
  %84 = load <4 x i32>, <4 x i32>* %83, align 16, !tbaa !5
  %85 = add <4 x i32> %81, %76
  %86 = add <4 x i32> %84, %77
  %87 = add nuw i64 %48, 32
  %88 = add i64 %51, -4
  %89 = icmp eq i64 %88, 0
  br i1 %89, label %90, label %47, !llvm.loop !11

90:                                               ; preds = %47, %38
  %91 = phi <4 x i32> [ undef, %38 ], [ %85, %47 ]
  %92 = phi <4 x i32> [ undef, %38 ], [ %86, %47 ]
  %93 = phi i64 [ 0, %38 ], [ %87, %47 ]
  %94 = phi <4 x i32> [ zeroinitializer, %38 ], [ %85, %47 ]
  %95 = phi <4 x i32> [ zeroinitializer, %38 ], [ %86, %47 ]
  %96 = icmp eq i64 %43, 0
  br i1 %96, label %113, label %97

97:                                               ; preds = %90, %97
  %98 = phi i64 [ %110, %97 ], [ %93, %90 ]
  %99 = phi <4 x i32> [ %108, %97 ], [ %94, %90 ]
  %100 = phi <4 x i32> [ %109, %97 ], [ %95, %90 ]
  %101 = phi i64 [ %111, %97 ], [ %43, %90 ]
  %102 = getelementptr inbounds [100 x i32], [100 x i32]* %1, i64 0, i64 %98
  %103 = bitcast i32* %102 to <4 x i32>*
  %104 = load <4 x i32>, <4 x i32>* %103, align 16, !tbaa !5
  %105 = getelementptr inbounds i32, i32* %102, i64 4
  %106 = bitcast i32* %105 to <4 x i32>*
  %107 = load <4 x i32>, <4 x i32>* %106, align 16, !tbaa !5
  %108 = add <4 x i32> %104, %99
  %109 = add <4 x i32> %107, %100
  %110 = add nuw i64 %98, 8
  %111 = add i64 %101, -1
  %112 = icmp eq i64 %111, 0
  br i1 %112, label %113, label %97, !llvm.loop !13

113:                                              ; preds = %97, %90
  %114 = phi <4 x i32> [ %91, %90 ], [ %108, %97 ]
  %115 = phi <4 x i32> [ %92, %90 ], [ %109, %97 ]
  %116 = add <4 x i32> %115, %114
  %117 = call i32 @llvm.vector.reduce.add.v4i32(<4 x i32> %116)
  %118 = icmp eq i64 %39, %36
  br i1 %118, label %161, label %119

119:                                              ; preds = %35, %113
  %120 = phi i64 [ 0, %35 ], [ %39, %113 ]
  %121 = phi i32 [ 0, %35 ], [ %117, %113 ]
  br label %153

122:                                              ; preds = %227, %31
  %123 = phi i32 [ %28, %31 ], [ %228, %227 ]
  %124 = phi i64 [ 0, %31 ], [ %134, %227 ]
  %125 = phi i64 [ %32, %31 ], [ %229, %227 ]
  %126 = or i64 %124, 1
  %127 = getelementptr inbounds [100 x i32], [100 x i32]* %1, i64 0, i64 %126
  %128 = load i32, i32* %127, align 4, !tbaa !5
  %129 = icmp sgt i32 %123, %128
  br i1 %129, label %130, label %132

130:                                              ; preds = %122
  %131 = getelementptr inbounds [100 x i32], [100 x i32]* %1, i64 0, i64 %124
  store i32 %128, i32* %131, align 8, !tbaa !5
  store i32 %123, i32* %127, align 4, !tbaa !5
  br label %132

132:                                              ; preds = %122, %130
  %133 = phi i32 [ %128, %122 ], [ %123, %130 ]
  %134 = add nuw nsw i64 %124, 2
  %135 = getelementptr inbounds [100 x i32], [100 x i32]* %1, i64 0, i64 %134
  %136 = load i32, i32* %135, align 8, !tbaa !5
  %137 = icmp sgt i32 %133, %136
  br i1 %137, label %225, label %227

138:                                              ; preds = %227, %27
  %139 = phi i32 [ %28, %27 ], [ %228, %227 ]
  %140 = phi i64 [ 0, %27 ], [ %134, %227 ]
  %141 = icmp eq i64 %29, 0
  br i1 %141, label %149, label %142

142:                                              ; preds = %138
  %143 = add nuw nsw i64 %140, 1
  %144 = getelementptr inbounds [100 x i32], [100 x i32]* %1, i64 0, i64 %143
  %145 = load i32, i32* %144, align 4, !tbaa !5
  %146 = icmp sgt i32 %139, %145
  br i1 %146, label %147, label %149

147:                                              ; preds = %142
  %148 = getelementptr inbounds [100 x i32], [100 x i32]* %1, i64 0, i64 %140
  store i32 %145, i32* %148, align 4, !tbaa !5
  store i32 %139, i32* %144, align 4, !tbaa !5
  br label %149

149:                                              ; preds = %138, %142, %147, %20
  %150 = add nuw nsw i32 %22, 1
  %151 = icmp eq i32 %150, %17
  %152 = add i32 %21, 1
  br i1 %151, label %33, label %20, !llvm.loop !15

153:                                              ; preds = %119, %153
  %154 = phi i64 [ %159, %153 ], [ %120, %119 ]
  %155 = phi i32 [ %158, %153 ], [ %121, %119 ]
  %156 = getelementptr inbounds [100 x i32], [100 x i32]* %1, i64 0, i64 %154
  %157 = load i32, i32* %156, align 4, !tbaa !5
  %158 = add nsw i32 %157, %155
  %159 = add nuw nsw i64 %154, 1
  %160 = icmp eq i64 %159, %36
  br i1 %160, label %161, label %153, !llvm.loop !16

161:                                              ; preds = %153, %113
  %162 = phi i32 [ %117, %113 ], [ %158, %153 ]
  %163 = sitofp i32 %162 to float
  br label %164

164:                                              ; preds = %0, %161, %33
  %165 = phi i32 [ %17, %33 ], [ %17, %161 ], [ %6, %0 ]
  %166 = phi float [ 0.000000e+00, %33 ], [ %163, %161 ], [ 0.000000e+00, %0 ]
  %167 = sitofp i32 %165 to float
  %168 = fdiv float %166, %167
  %169 = add nsw i32 %165, -1
  %170 = sext i32 %169 to i64
  %171 = getelementptr inbounds [100 x i32], [100 x i32]* %1, i64 0, i64 %170
  %172 = load i32, i32* %171, align 4, !tbaa !5
  %173 = sitofp i32 %172 to float
  %174 = fsub float %173, %168
  %175 = getelementptr inbounds [100 x i32], [100 x i32]* %1, i64 0, i64 0
  %176 = load i32, i32* %175, align 16, !tbaa !5
  %177 = sitofp i32 %176 to float
  %178 = fsub float %168, %177
  %179 = fcmp ogt float %174, %178
  br i1 %179, label %180, label %201

180:                                              ; preds = %164
  %181 = call i32 (i8*, ...) @printf(i8* nonnull dereferenceable(1) getelementptr inbounds ([3 x i8], [3 x i8]* @.str, i64 0, i64 0), i32 %172)
  %182 = load i32, i32* %2, align 4, !tbaa !5
  %183 = icmp sgt i32 %182, 2
  br i1 %183, label %184, label %224

184:                                              ; preds = %180, %195
  %185 = phi i32 [ %196, %195 ], [ %182, %180 ]
  %186 = phi i64 [ %197, %195 ], [ 1, %180 ]
  %187 = getelementptr inbounds [100 x i32], [100 x i32]* %1, i64 0, i64 %186
  %188 = load i32, i32* %187, align 4, !tbaa !5
  %189 = sitofp i32 %188 to float
  %190 = fsub float %189, %168
  %191 = fcmp oeq float %190, %174
  br i1 %191, label %192, label %195

192:                                              ; preds = %184
  %193 = call i32 (i8*, ...) @printf(i8* nonnull dereferenceable(1) getelementptr inbounds ([4 x i8], [4 x i8]* @.str.1, i64 0, i64 0), i32 %188)
  %194 = load i32, i32* %2, align 4, !tbaa !5
  br label %195

195:                                              ; preds = %184, %192
  %196 = phi i32 [ %185, %184 ], [ %194, %192 ]
  %197 = add nuw nsw i64 %186, 1
  %198 = add nsw i32 %196, -1
  %199 = sext i32 %198 to i64
  %200 = icmp slt i64 %197, %199
  br i1 %200, label %184, label %224, !llvm.loop !18

201:                                              ; preds = %164
  %202 = call i32 (i8*, ...) @printf(i8* nonnull dereferenceable(1) getelementptr inbounds ([3 x i8], [3 x i8]* @.str, i64 0, i64 0), i32 %176)
  %203 = load i32, i32* %2, align 4, !tbaa !5
  %204 = icmp sgt i32 %203, 1
  br i1 %204, label %205, label %224

205:                                              ; preds = %201, %219
  %206 = phi i32 [ %220, %219 ], [ %203, %201 ]
  %207 = phi i64 [ %221, %219 ], [ 1, %201 ]
  %208 = getelementptr inbounds [100 x i32], [100 x i32]* %1, i64 0, i64 %207
  %209 = load i32, i32* %208, align 4, !tbaa !5
  %210 = sitofp i32 %209 to float
  %211 = fsub float %210, %168
  %212 = fcmp oeq float %211, %178
  %213 = fsub float %168, %210
  %214 = fcmp oeq float %213, %178
  %215 = or i1 %212, %214
  br i1 %215, label %216, label %219

216:                                              ; preds = %205
  %217 = call i32 (i8*, ...) @printf(i8* nonnull dereferenceable(1) getelementptr inbounds ([4 x i8], [4 x i8]* @.str.1, i64 0, i64 0), i32 %209)
  %218 = load i32, i32* %2, align 4, !tbaa !5
  br label %219

219:                                              ; preds = %205, %216
  %220 = phi i32 [ %206, %205 ], [ %218, %216 ]
  %221 = add nuw nsw i64 %207, 1
  %222 = sext i32 %220 to i64
  %223 = icmp slt i64 %221, %222
  br i1 %223, label %205, label %224, !llvm.loop !19

224:                                              ; preds = %219, %195, %201, %180
  call void @llvm.lifetime.end.p0i8(i64 4, i8* nonnull %4) #4
  call void @llvm.lifetime.end.p0i8(i64 400, i8* nonnull %3) #4
  ret void

225:                                              ; preds = %132
  %226 = getelementptr inbounds [100 x i32], [100 x i32]* %1, i64 0, i64 %126
  store i32 %136, i32* %226, align 4, !tbaa !5
  store i32 %133, i32* %135, align 8, !tbaa !5
  br label %227

227:                                              ; preds = %225, %132
  %228 = phi i32 [ %136, %132 ], [ %133, %225 ]
  %229 = add i64 %125, -2
  %230 = icmp eq i64 %229, 0
  br i1 %230, label %138, label %122, !llvm.loop !20
}

; Function Attrs: argmemonly mustprogress nofree nosync nounwind willreturn
declare void @llvm.lifetime.start.p0i8(i64 immarg, i8* nocapture) #1

; Function Attrs: nofree nounwind
declare noundef i32 @__isoc99_scanf(i8* nocapture noundef readonly, ...) local_unnamed_addr #2

; Function Attrs: nofree nounwind
declare noundef i32 @printf(i8* nocapture noundef readonly, ...) local_unnamed_addr #2

; Function Attrs: argmemonly mustprogress nofree nosync nounwind willreturn
declare void @llvm.lifetime.end.p0i8(i64 immarg, i8* nocapture) #1

; Function Attrs: nofree nosync nounwind readnone willreturn
declare i32 @llvm.vector.reduce.add.v4i32(<4 x i32>) #3


!llvm.module.flags = !{!0, !1, !2, !3}
!llvm.ident = !{!4}

!0 = !{i32 1, !"wchar_size", i32 4}
!1 = !{i32 7, !"PIC Level", i32 2}
!2 = !{i32 7, !"PIE Level", i32 2}
!3 = !{i32 7, !"uwtable", i32 1}
!4 = !{!"clang version 13.0.0"}
!5 = !{!6, !6, i64 0}
!6 = !{!"int", !7, i64 0}
!7 = !{!"omnipotent char", !8, i64 0}
!8 = !{!"Simple C/C++ TBAA"}
!9 = distinct !{!9, !10}
!10 = !{!"llvm.loop.mustprogress"}
!11 = distinct !{!11, !10, !12}
!12 = !{!"llvm.loop.isvectorized", i32 1}
!13 = distinct !{!13, !14}
!14 = !{!"llvm.loop.unroll.disable"}
!15 = distinct !{!15, !10}
!16 = distinct !{!16, !10, !17, !12}
!17 = !{!"llvm.loop.unroll.runtime.disable"}
!18 = distinct !{!18, !10}
!19 = distinct !{!19, !10}
!20 = distinct !{!20, !10}
